target datalayout = "e-m:e-p270:32:32-p271:32:32-p272:64:64-i64:64-i128:128-f80:128-n8:16:32:64-S128"
target triple = "x86_64-pc-linux-gnu"

%struct.UpgradeTaskReport = type { ptr, [1024 x i8] }
%struct.DbInfo = type { i32, ptr, [1024 x i8], %struct.RelInfoArr, %struct.LogicalSlotInfoArr }
%struct.RelInfoArr = type { ptr, i32 }
%struct.LogicalSlotInfoArr = type { i32, ptr }

@.str.23 = private unnamed_addr constant [2 x i8] c"w\00", align 1
@.str.24 = private unnamed_addr constant [29 x i8] c"could not open file \22%s\22: %m\00", align 1
@.str.75 = private unnamed_addr constant [8 x i8] c"nspname\00", align 1
@.str.76 = private unnamed_addr constant [8 x i8] c"relname\00", align 1
@.str.183 = private unnamed_addr constant [11 x i8] c"srsubstate\00", align 1
@.str.184 = private unnamed_addr constant [8 x i8] c"subname\00", align 1
@.str.185 = private unnamed_addr constant [104 x i8] c"The table sync state \22%s\22 is not allowed for database:\22%s\22 subscription:\22%s\22 schema:\22%s\22 relation:\22%s\22\0A\00", align 1

; Function Attrs: nounwind uwtable
define internal void @process_old_sub_state_check(ptr noundef %0, ptr noundef %1, ptr noundef %2) #0 {
  %4 = alloca ptr, align 8
  %5 = alloca ptr, align 8
  %6 = alloca ptr, align 8
  %7 = alloca ptr, align 8
  %8 = alloca i32, align 4
  %9 = alloca i32, align 4
  %10 = alloca i32, align 4
  %11 = alloca i32, align 4
  %12 = alloca i32, align 4
  %13 = alloca i32, align 4
  %14 = alloca i32, align 4
  store ptr %0, ptr %4, align 8
  store ptr %1, ptr %5, align 8
  store ptr %2, ptr %6, align 8
  call void @llvm.lifetime.start.p0(i64 8, ptr %7) #9
  %15 = load ptr, ptr %6, align 8
  store ptr %15, ptr %7, align 8
  call void @llvm.lifetime.start.p0(i64 4, ptr %8) #9
  %16 = load ptr, ptr %5, align 8
  %17 = call i32 @PQntuples(ptr noundef %16)
  store i32 %17, ptr %8, align 4
  call void @llvm.lifetime.start.p0(i64 4, ptr %9) #9
  %18 = load ptr, ptr %5, align 8
  %19 = call i32 @PQfnumber(ptr noundef %18, ptr noundef @.str.183)
  store i32 %19, ptr %9, align 4
  call void @llvm.lifetime.start.p0(i64 4, ptr %10) #9
  %20 = load ptr, ptr %5, align 8
  %21 = call i32 @PQfnumber(ptr noundef %20, ptr noundef @.str.184)
  store i32 %21, ptr %10, align 4
  call void @llvm.lifetime.start.p0(i64 4, ptr %11) #9
  %22 = load ptr, ptr %5, align 8
  %23 = call i32 @PQfnumber(ptr noundef %22, ptr noundef @.str.75)
  store i32 %23, ptr %11, align 4
  call void @llvm.lifetime.start.p0(i64 4, ptr %12) #9
  %24 = load ptr, ptr %5, align 8
  %25 = call i32 @PQfnumber(ptr noundef %24, ptr noundef @.str.76)
  store i32 %25, ptr %12, align 4
  br label %26

26:                                               ; preds = %3
  br label %27

27:                                               ; preds = %26
  br label %28

28:                                               ; preds = %27
  %29 = load i32, ptr %8, align 4
  %30 = icmp eq i32 %29, 0
  br i1 %30, label %31, label %32

31:                                               ; preds = %28
  store i32 1, ptr %13, align 4
  br label %83

32:                                               ; preds = %28
  %33 = load ptr, ptr %7, align 8
  %34 = getelementptr inbounds nuw %struct.UpgradeTaskReport, ptr %33, i32 0, i32 0
  %35 = load ptr, ptr %34, align 8
  %36 = icmp eq ptr %35, null
  br i1 %36, label %37, label %49

37:                                               ; preds = %32
  %38 = load ptr, ptr %7, align 8
  %39 = getelementptr inbounds nuw %struct.UpgradeTaskReport, ptr %38, i32 0, i32 1
  %40 = getelementptr inbounds [1024 x i8], ptr %39, i64 0, i64 0
  %41 = call noalias ptr @fopen(ptr noundef %40, ptr noundef @.str.23)
  %42 = load ptr, ptr %7, align 8
  %43 = getelementptr inbounds nuw %struct.UpgradeTaskReport, ptr %42, i32 0, i32 0
  store ptr %41, ptr %43, align 8
  %44 = icmp eq ptr %41, null
  br i1 %44, label %45, label %49

45:                                               ; preds = %37
  %46 = load ptr, ptr %7, align 8
  %47 = getelementptr inbounds nuw %struct.UpgradeTaskReport, ptr %46, i32 0, i32 1
  %48 = getelementptr inbounds [1024 x i8], ptr %47, i64 0, i64 0
  call void (ptr, ...) @pg_fatal(ptr noundef @.str.24, ptr noundef %48) #11
  unreachable

49:                                               ; preds = %37, %32
  call void @llvm.lifetime.start.p0(i64 4, ptr %14) #9
  store i32 0, ptr %14, align 4
  br label %50

50:                                               ; preds = %79, %49
  %51 = load i32, ptr %14, align 4
  %52 = load i32, ptr %8, align 4
  %53 = icmp slt i32 %51, %52
  br i1 %53, label %55, label %54

54:                                               ; preds = %50
  store i32 4, ptr %13, align 4
  call void @llvm.lifetime.end.p0(i64 4, ptr %14) #9
  br label %82

55:                                               ; preds = %50
  %56 = load ptr, ptr %7, align 8
  %57 = getelementptr inbounds nuw %struct.UpgradeTaskReport, ptr %56, i32 0, i32 0
  %58 = load ptr, ptr %57, align 8
  %59 = load ptr, ptr %5, align 8
  %60 = load i32, ptr %14, align 4
  %61 = load i32, ptr %9, align 4
  %62 = call ptr @PQgetvalue(ptr noundef %59, i32 noundef %60, i32 noundef %61)
  %63 = load ptr, ptr %4, align 8
  %64 = getelementptr inbounds nuw %struct.DbInfo, ptr %63, i32 0, i32 1
  %65 = load ptr, ptr %64, align 8
  %66 = load ptr, ptr %5, align 8
  %67 = load i32, ptr %14, align 4
  %68 = load i32, ptr %10, align 4
  %69 = call ptr @PQgetvalue(ptr noundef %66, i32 noundef %67, i32 noundef %68)
  %70 = load ptr, ptr %5, align 8
  %71 = load i32, ptr %14, align 4
  %72 = load i32, ptr %11, align 4
  %73 = call ptr @PQgetvalue(ptr noundef %70, i32 noundef %71, i32 noundef %72)
  %74 = load ptr, ptr %5, align 8
  %75 = load i32, ptr %14, align 4
  %76 = load i32, ptr %12, align 4
  %77 = call ptr @PQgetvalue(ptr noundef %74, i32 noundef %75, i32 noundef %76)
  %78 = call i32 (ptr, ptr, ...) @pg_fprintf(ptr noundef %58, ptr noundef @.str.185, ptr noundef %62, ptr noundef %65, ptr noundef %69, ptr noundef %73, ptr noundef %77)
  br label %79

79:                                               ; preds = %55
  %80 = load i32, ptr %14, align 4
  %81 = add i32 %80, 1
  store i32 %81, ptr %14, align 4
  br label %50, !llvm.loop !27

82:                                               ; preds = %54
  store i32 0, ptr %13, align 4
  br label %83

83:                                               ; preds = %82, %31
  call void @llvm.lifetime.end.p0(i64 4, ptr %12) #9
  call void @llvm.lifetime.end.p0(i64 4, ptr %11) #9
  call void @llvm.lifetime.end.p0(i64 4, ptr %10) #9
  call void @llvm.lifetime.end.p0(i64 4, ptr %9) #9
  call void @llvm.lifetime.end.p0(i64 4, ptr %8) #9
  call void @llvm.lifetime.end.p0(i64 8, ptr %7) #9
  %84 = load i32, ptr %13, align 4
  switch i32 %84, label %86 [
    i32 0, label %85
    i32 1, label %85
  ]

85:                                               ; preds = %83, %83
  ret void

86:                                               ; preds = %83
  unreachable
}