; Function Attrs: nounwind uwtable
define internal void @process_old_sub_state_check(ptr noundef readonly captures(none) %0, ptr noundef %1, ptr noundef %2) #0 {
  %4 = tail call i32 @PQntuples(ptr noundef %1) #10
  %5 = tail call i32 @PQfnumber(ptr noundef %1, ptr noundef nonnull @.str.183) #10
  %6 = tail call i32 @PQfnumber(ptr noundef %1, ptr noundef nonnull @.str.184) #10
  %7 = tail call i32 @PQfnumber(ptr noundef %1, ptr noundef nonnull @.str.75) #10
  %8 = tail call i32 @PQfnumber(ptr noundef %1, ptr noundef nonnull @.str.76) #10
  %9 = icmp eq i32 %4, 0
  br i1 %9, label %.loopexit, label %10

10:                                               ; preds = %3
  %11 = load ptr, ptr %2, align 8
  %12 = icmp eq ptr %11, null
  br i1 %12, label %13, label %18

13:                                               ; preds = %10
  %14 = getelementptr inbounds nuw i8, ptr %2, i64 8
  %15 = tail call noalias ptr @fopen(ptr noundef nonnull %14, ptr noundef nonnull @.str.23)
  store ptr %15, ptr %2, align 8
  %16 = icmp eq ptr %15, null
  br i1 %16, label %17, label %18

17:                                               ; preds = %13
  tail call void (ptr, ...) @pg_fatal(ptr noundef nonnull @.str.24, ptr noundef nonnull %14) #12
  unreachable

18:                                               ; preds = %13, %10
  %19 = icmp sgt i32 %4, 0
  br i1 %19, label %.lr.ph, label %.loopexit

.lr.ph:                                           ; preds = %18
  %20 = getelementptr inbounds nuw i8, ptr %0, i64 8
  br label %21

21:                                               ; preds = %.lr.ph, %21
  %.028 = phi i32 [ 0, %.lr.ph ], [ %29, %21 ]
  %22 = load ptr, ptr %2, align 8
  %23 = tail call ptr @PQgetvalue(ptr noundef %1, i32 noundef %.028, i32 noundef %5) #10
  %24 = load ptr, ptr %20, align 8
  %25 = tail call ptr @PQgetvalue(ptr noundef %1, i32 noundef %.028, i32 noundef %6) #10
  %26 = tail call ptr @PQgetvalue(ptr noundef %1, i32 noundef %.028, i32 noundef %7) #10
  %27 = tail call ptr @PQgetvalue(ptr noundef %1, i32 noundef %.028, i32 noundef %8) #10
  %28 = tail call i32 (ptr, ptr, ...) @pg_fprintf(ptr noundef %22, ptr noundef nonnull @.str.185, ptr noundef %23, ptr noundef %24, ptr noundef %25, ptr noundef %26, ptr noundef %27) #10
  %29 = add nuw nsw i32 %.028, 1
  %exitcond.not = icmp eq i32 %29, %4
  br i1 %exitcond.not, label %.loopexit, label %21, !llvm.loop !27

.loopexit:                                        ; preds = %21, %18, %3
  ret void
}